target datalayout = "e-m:e-p270:32:32-p271:32:32-p272:64:64-i64:64-i128:128-f80:128-n8:16:32:64-S128"
target triple = "x86_64-pc-linux-gnu"

@_ZN13Probabilities9instance_E = dso_local global ptr null, align 8
@_ZN13ProbabilitiesC1Ev = dso_local unnamed_addr alias void (ptr), ptr @_ZN13ProbabilitiesC2Ev

; Function Attrs: mustprogress uwtable
define dso_local void @_ZN13Probabilities22initialize_group_probsEv(ptr noundef nonnull align 8 dereferenceable(288) %0) #4 align 2 {
  %2 = alloca ptr, align 8
  store ptr %0, ptr %2, align 8
  %3 = load ptr, ptr %2, align 8
  call void @_ZN13Probabilities26set_default_statement_probEv(ptr noundef nonnull align 8 dereferenceable(288) %3)
  call void @_ZN13Probabilities26set_default_unary_ops_probEv(ptr noundef nonnull align 8 dereferenceable(288) %3)
  call void @_ZN13Probabilities27set_default_binary_ops_probEv(ptr noundef nonnull align 8 dereferenceable(288) %3)
  call void @_ZN13Probabilities29set_default_simple_types_probEv(ptr noundef nonnull align 8 dereferenceable(288) %3)
  call void @_ZN13Probabilities30set_default_safe_ops_size_probEv(ptr noundef nonnull align 8 dereferenceable(288) %3)
  call void @_ZN15StatementAssign20InitProbabilityTableEv()
  call void @_ZN10Expression21InitProbabilityTablesEv()
  ret void
}

; Function Attrs: mustprogress uwtable
define dso_local void @_ZN13Probabilities10initializeEv(ptr noundef nonnull align 8 dereferenceable(288) %0) #4 align 2 {
  %2 = alloca ptr, align 8
  store ptr %0, ptr %2, align 8
  %3 = load ptr, ptr %2, align 8
  call void @_ZN13Probabilities20set_single_name_mapsEv(ptr noundef nonnull align 8 dereferenceable(288) %3)
  call void @_ZN13Probabilities23initialize_single_probsEv(ptr noundef nonnull align 8 dereferenceable(288) %3)
  call void @_ZN13Probabilities22initialize_group_probsEv(ptr noundef nonnull align 8 dereferenceable(288) %3)
  ret void
}

; Function Attrs: mustprogress uwtable
define dso_local noundef ptr @_ZN13Probabilities11GetInstanceEv() #4 align 2 personality ptr @__gxx_personality_v0 {
  %1 = alloca ptr, align 8
  %2 = alloca ptr, align 8
  %3 = alloca i32, align 4
  %4 = load ptr, ptr @_ZN13Probabilities9instance_E, align 8
  %5 = icmp ne ptr %4, null
  br i1 %5, label %6, label %8

6:                                                ; preds = %0
  %7 = load ptr, ptr @_ZN13Probabilities9instance_E, align 8
  store ptr %7, ptr %1, align 8
  br label %17

8:                                                ; preds = %0
  %9 = call noalias noundef nonnull ptr @_Znwm(i64 noundef 288) #15
  invoke void @_ZN13ProbabilitiesC1Ev(ptr noundef nonnull align 8 dereferenceable(288) %9)
          to label %10 unwind label %13

10:                                               ; preds = %8
  store ptr %9, ptr @_ZN13Probabilities9instance_E, align 8
  %11 = load ptr, ptr @_ZN13Probabilities9instance_E, align 8
  call void @_ZN13Probabilities10initializeEv(ptr noundef nonnull align 8 dereferenceable(288) %11)
  %12 = load ptr, ptr @_ZN13Probabilities9instance_E, align 8
  store ptr %12, ptr %1, align 8
  br label %17

13:                                               ; preds = %8
  %14 = landingpad { ptr, i32 }
          cleanup
  %15 = extractvalue { ptr, i32 } %14, 0
  store ptr %15, ptr %2, align 8
  %16 = extractvalue { ptr, i32 } %14, 1
  store i32 %16, ptr %3, align 4
  call void @_ZdlPv(ptr noundef %9) #14
  br label %19

17:                                               ; preds = %10, %6
  %18 = load ptr, ptr %1, align 8
  ret ptr %18

19:                                               ; preds = %13
  %20 = load ptr, ptr %2, align 8
  %21 = load i32, ptr %3, align 4
  %22 = insertvalue { ptr, i32 } poison, ptr %20, 0
  %23 = insertvalue { ptr, i32 } %22, i32 %21, 1
  resume { ptr, i32 } %23
}