; Function Attrs: mustprogress uwtable
define dso_local noundef ptr @_ZN13Probabilities11GetInstanceEv() local_unnamed_addr #3 align 2 personality ptr @__gxx_personality_v0 {
  %1 = load ptr, ptr @_ZN13Probabilities9instance_E, align 8
  %.not = icmp eq ptr %1, null
  br i1 %.not, label %2, label %35

2:                                                ; preds = %0
  %3 = tail call noalias noundef nonnull dereferenceable(288) ptr @_Znwm(i64 noundef 288) #25
  %4 = getelementptr inbounds i8, ptr %3, i64 8
  store i32 0, ptr %4, align 8
  %5 = getelementptr inbounds i8, ptr %3, i64 16
  store ptr null, ptr %5, align 8
  %6 = getelementptr inbounds i8, ptr %3, i64 24
  store ptr %4, ptr %6, align 8
  %7 = getelementptr inbounds i8, ptr %3, i64 32
  store ptr %4, ptr %7, align 8
  %8 = getelementptr inbounds i8, ptr %3, i64 40
  store i64 0, ptr %8, align 8
  %9 = getelementptr inbounds i8, ptr %3, i64 56
  store i32 0, ptr %9, align 8
  %10 = getelementptr inbounds i8, ptr %3, i64 64
  store ptr null, ptr %10, align 8
  %11 = getelementptr inbounds i8, ptr %3, i64 72
  store ptr %9, ptr %11, align 8
  %12 = getelementptr inbounds i8, ptr %3, i64 80
  store ptr %9, ptr %12, align 8
  %13 = getelementptr inbounds i8, ptr %3, i64 88
  store i64 0, ptr %13, align 8
  %14 = getelementptr inbounds i8, ptr %3, i64 104
  store i32 0, ptr %14, align 8
  %15 = getelementptr inbounds i8, ptr %3, i64 112
  store ptr null, ptr %15, align 8
  %16 = getelementptr inbounds i8, ptr %3, i64 120
  store ptr %14, ptr %16, align 8
  %17 = getelementptr inbounds i8, ptr %3, i64 128
  store ptr %14, ptr %17, align 8
  %18 = getelementptr inbounds i8, ptr %3, i64 136
  store i64 0, ptr %18, align 8
  %19 = getelementptr inbounds i8, ptr %3, i64 152
  store i32 0, ptr %19, align 8
  %20 = getelementptr inbounds i8, ptr %3, i64 160
  store ptr null, ptr %20, align 8
  %21 = getelementptr inbounds i8, ptr %3, i64 168
  store ptr %19, ptr %21, align 8
  %22 = getelementptr inbounds i8, ptr %3, i64 176
  store ptr %19, ptr %22, align 8
  %23 = getelementptr inbounds i8, ptr %3, i64 184
  store i64 0, ptr %23, align 8
  %24 = getelementptr inbounds i8, ptr %3, i64 200
  store i32 0, ptr %24, align 8
  %25 = getelementptr inbounds i8, ptr %3, i64 208
  store ptr null, ptr %25, align 8
  %26 = getelementptr inbounds i8, ptr %3, i64 216
  store ptr %24, ptr %26, align 8
  %27 = getelementptr inbounds i8, ptr %3, i64 224
  store ptr %24, ptr %27, align 8
  %28 = getelementptr inbounds i8, ptr %3, i64 232
  store i64 0, ptr %28, align 8
  %29 = getelementptr inbounds i8, ptr %3, i64 248
  store i32 0, ptr %29, align 8
  %30 = getelementptr inbounds i8, ptr %3, i64 256
  store ptr null, ptr %30, align 8
  %31 = getelementptr inbounds i8, ptr %3, i64 264
  store ptr %29, ptr %31, align 8
  %32 = getelementptr inbounds i8, ptr %3, i64 272
  store ptr %29, ptr %32, align 8
  %33 = getelementptr inbounds i8, ptr %3, i64 280
  store i64 0, ptr %33, align 8
  store ptr %3, ptr @_ZN13Probabilities9instance_E, align 8
  tail call void @_ZN13Probabilities20set_single_name_mapsEv(ptr noundef nonnull align 8 dereferenceable(288) %3)
  tail call void @_ZN13Probabilities23initialize_single_probsEv(ptr noundef nonnull align 8 dereferenceable(288) %3)
  tail call void @_ZN13Probabilities26set_default_statement_probEv(ptr noundef nonnull align 8 dereferenceable(288) %3)
  tail call void @_ZN13Probabilities26set_default_unary_ops_probEv(ptr noundef nonnull align 8 dereferenceable(288) %3)
  tail call void @_ZN13Probabilities27set_default_binary_ops_probEv(ptr noundef nonnull align 8 dereferenceable(288) %3)
  tail call void @_ZN13Probabilities29set_default_simple_types_probEv(ptr noundef nonnull align 8 dereferenceable(288) %3)
  tail call void @_ZN13Probabilities30set_default_safe_ops_size_probEv(ptr noundef nonnull align 8 dereferenceable(288) %3)
  tail call void @_ZN15StatementAssign20InitProbabilityTableEv()
  tail call void @_ZN10Expression21InitProbabilityTablesEv()
  %34 = load ptr, ptr @_ZN13Probabilities9instance_E, align 8
  br label %35

35:                                               ; preds = %0, %2
  %.0 = phi ptr [ %34, %2 ], [ %1, %0 ]
  ret ptr %.0
}